target datalayout = "e-m:e-p270:32:32-p271:32:32-p272:64:64-i64:64-i128:128-f80:128-n8:16:32:64-S128"
target triple = "x86_64-pc-linux-gnu"

%struct._zend_refcounted_h = type { i32, %union.anon }
%union.anon = type { i32 }
%struct._zval_struct = type { %union._zend_value, %union.anon.3, %union.anon.6 }
%union._zend_value = type { i64 }
%union.anon.3 = type { i32 }
%union.anon.6 = type { i32 }

; Function Attrs: nounwind uwtable
define internal void @str_dtor(ptr noundef %0) #0 {
  %2 = alloca ptr, align 8
  %3 = alloca i32, align 4
  %4 = alloca ptr, align 8
  %5 = alloca i8, align 1
  %6 = alloca ptr, align 8
  store ptr %0, ptr %6, align 8
  %7 = load ptr, ptr %6, align 8
  %8 = getelementptr inbounds %struct._zval_struct, ptr %7, i32 0, i32 0
  %9 = load ptr, ptr %8, align 8
  store ptr %9, ptr %4, align 8
  store i8 0, ptr %5, align 1
  %10 = load ptr, ptr %4, align 8
  %11 = getelementptr inbounds %struct._zend_refcounted_h, ptr %10, i32 0, i32 1
  %12 = load i32, ptr %11, align 4
  store i32 %12, ptr %3, align 4
  %13 = load i32, ptr %3, align 4
  %14 = and i32 %13, 1008
  %15 = and i32 %14, 64
  %16 = icmp ne i32 %15, 0
  br i1 %16, label %35, label %17

17:                                               ; preds = %1
  %18 = load ptr, ptr %4, align 8
  store ptr %18, ptr %2, align 8
  %19 = load ptr, ptr %2, align 8
  %20 = load i32, ptr %19, align 4
  %21 = icmp ugt i32 %20, 0
  call void @llvm.assume(i1 %21)
  %22 = load ptr, ptr %2, align 8
  %23 = load i32, ptr %22, align 4
  %24 = add i32 %23, -1
  store i32 %24, ptr %22, align 4
  %25 = icmp eq i32 %24, 0
  br i1 %25, label %26, label %34

26:                                               ; preds = %17
  %27 = load i8, ptr %5, align 1
  %28 = trunc i8 %27 to i1
  br i1 %28, label %29, label %31

29:                                               ; preds = %26
  %30 = load ptr, ptr %4, align 8
  call void @free(ptr noundef %30) #15
  br label %33

31:                                               ; preds = %26
  %32 = load ptr, ptr %4, align 8
  call void @_efree(ptr noundef %32) #15
  br label %33

33:                                               ; preds = %31, %29
  br label %34

34:                                               ; preds = %33, %17
  br label %35

35:                                               ; preds = %34, %1
  ret void
}