; Function Attrs: nounwind uwtable
define internal void @str_dtor(ptr nocapture noundef readonly %0) #0 {
  %2 = load ptr, ptr %0, align 8
  %3 = getelementptr inbounds i8, ptr %2, i64 4
  %4 = load i32, ptr %3, align 4
  %5 = and i32 %4, 64
  %.not = icmp eq i32 %5, 0
  br i1 %.not, label %6, label %12

6:                                                ; preds = %1
  %7 = load i32, ptr %2, align 4
  %8 = icmp ne i32 %7, 0
  tail call void @llvm.assume(i1 %8)
  %9 = add i32 %7, -1
  store i32 %9, ptr %2, align 4
  %10 = icmp eq i32 %9, 0
  br i1 %10, label %11, label %12

11:                                               ; preds = %6
  tail call void @_efree(ptr noundef nonnull %2) #30
  br label %12

12:                                               ; preds = %6, %11, %1
  ret void
}